target datalayout = "e-m:e-p270:32:32-p271:32:32-p272:64:64-i64:64-i128:128-f80:128-n8:16:32:64-S128"
target triple = "x86_64-pc-linux-gnu"

%class.XMMRegister = type { i32 }
%class.KRegister = type { i32 }

@.str = private unnamed_addr constant [46 x i8] c"src/hotspot/cpu/x86/c2_MacroAssembler_x86.cpp\00", align 1
@g_assert_poison = external global ptr, align 8
@.str.5 = private unnamed_addr constant [29 x i8] c"Unsupported masked operation\00", align 1

; Function Attrs: mustprogress nounwind uwtable
define hidden void @_ZN17C2_MacroAssembler11evmasked_opEi9BasicType9KRegister11XMMRegisterS2_ibi(ptr noundef nonnull align 8 dereferenceable(40) %0, i32 noundef %1, i8 noundef zeroext %2, i32 %3, i32 %4, i32 %5, i32 noundef %6, i1 noundef zeroext %7, i32 noundef %8) #1 align 2 {
  %10 = alloca %class.KRegister, align 4
  %11 = alloca %class.XMMRegister, align 4
  %12 = alloca %class.XMMRegister, align 4
  %13 = alloca ptr, align 8
  %14 = alloca i32, align 4
  %15 = alloca i8, align 1
  %16 = alloca i32, align 4
  %17 = alloca i8, align 1
  %18 = alloca i32, align 4
  %19 = alloca %class.XMMRegister, align 4
  %20 = alloca %class.KRegister, align 4
  %21 = alloca %class.XMMRegister, align 4
  %22 = alloca %class.XMMRegister, align 4
  %23 = alloca %class.KRegister, align 4
  %24 = alloca %class.XMMRegister, align 4
  %25 = alloca %class.XMMRegister, align 4
  %26 = alloca %class.KRegister, align 4
  %27 = alloca %class.XMMRegister, align 4
  %28 = alloca %class.XMMRegister, align 4
  %29 = alloca %class.KRegister, align 4
  %30 = alloca %class.XMMRegister, align 4
  %31 = alloca %class.XMMRegister, align 4
  %32 = alloca %class.KRegister, align 4
  %33 = alloca %class.XMMRegister, align 4
  %34 = alloca %class.XMMRegister, align 4
  %35 = alloca %class.KRegister, align 4
  %36 = alloca %class.XMMRegister, align 4
  %37 = alloca %class.XMMRegister, align 4
  %38 = alloca %class.KRegister, align 4
  %39 = alloca %class.XMMRegister, align 4
  %40 = alloca %class.XMMRegister, align 4
  %41 = alloca %class.KRegister, align 4
  %42 = alloca %class.XMMRegister, align 4
  %43 = alloca %class.XMMRegister, align 4
  %44 = alloca %class.KRegister, align 4
  %45 = alloca %class.XMMRegister, align 4
  %46 = alloca %class.XMMRegister, align 4
  %47 = alloca %class.KRegister, align 4
  %48 = alloca %class.XMMRegister, align 4
  %49 = alloca %class.XMMRegister, align 4
  %50 = alloca %class.KRegister, align 4
  %51 = alloca %class.XMMRegister, align 4
  %52 = getelementptr inbounds %class.KRegister, ptr %10, i32 0, i32 0
  store i32 %3, ptr %52, align 4
  %53 = getelementptr inbounds %class.XMMRegister, ptr %11, i32 0, i32 0
  store i32 %4, ptr %53, align 4
  %54 = getelementptr inbounds %class.XMMRegister, ptr %12, i32 0, i32 0
  store i32 %5, ptr %54, align 4
  store ptr %0, ptr %13, align 8
  store i32 %1, ptr %14, align 4
  store i8 %2, ptr %15, align 1
  store i32 %6, ptr %16, align 4
  %55 = zext i1 %7 to i8
  store i8 %55, ptr %17, align 1
  store i32 %8, ptr %18, align 4
  %56 = load ptr, ptr %13, align 8
  %57 = load i32, ptr %14, align 4
  switch i32 %57, label %181 [
    i32 402, label %58
    i32 403, label %69
    i32 404, label %80
    i32 406, label %91
    i32 407, label %102
    i32 408, label %113
    i32 410, label %124
    i32 411, label %135
    i32 412, label %146
    i32 299, label %157
    i32 297, label %169
  ]

58:                                               ; preds = %9
  call void @llvm.memcpy.p0.p0.i64(ptr align 4 %19, ptr align 4 %11, i64 4, i1 false)
  call void @llvm.memcpy.p0.p0.i64(ptr align 4 %20, ptr align 4 %10, i64 4, i1 false)
  call void @llvm.memcpy.p0.p0.i64(ptr align 4 %21, ptr align 4 %12, i64 4, i1 false)
  %59 = load i32, ptr %16, align 4
  %60 = load i8, ptr %17, align 1
  %61 = trunc i8 %60 to i1
  %62 = load i32, ptr %18, align 4
  %63 = getelementptr inbounds %class.XMMRegister, ptr %19, i32 0, i32 0
  %64 = load i32, ptr %63, align 4
  %65 = getelementptr inbounds %class.KRegister, ptr %20, i32 0, i32 0
  %66 = load i32, ptr %65, align 4
  %67 = getelementptr inbounds %class.XMMRegister, ptr %21, i32 0, i32 0
  %68 = load i32, ptr %67, align 4
  call void @_ZN9Assembler7evpsllwE11XMMRegister9KRegisterS0_ibi(ptr noundef nonnull align 8 dereferenceable(40) %56, i32 %64, i32 %66, i32 %68, i32 noundef %59, i1 noundef zeroext %61, i32 noundef %62)
  br label %185

69:                                               ; preds = %9
  call void @llvm.memcpy.p0.p0.i64(ptr align 4 %22, ptr align 4 %11, i64 4, i1 false)
  call void @llvm.memcpy.p0.p0.i64(ptr align 4 %23, ptr align 4 %10, i64 4, i1 false)
  call void @llvm.memcpy.p0.p0.i64(ptr align 4 %24, ptr align 4 %12, i64 4, i1 false)
  %70 = load i32, ptr %16, align 4
  %71 = load i8, ptr %17, align 1
  %72 = trunc i8 %71 to i1
  %73 = load i32, ptr %18, align 4
  %74 = getelementptr inbounds %class.XMMRegister, ptr %22, i32 0, i32 0
  %75 = load i32, ptr %74, align 4
  %76 = getelementptr inbounds %class.KRegister, ptr %23, i32 0, i32 0
  %77 = load i32, ptr %76, align 4
  %78 = getelementptr inbounds %class.XMMRegister, ptr %24, i32 0, i32 0
  %79 = load i32, ptr %78, align 4
  call void @_ZN9Assembler7evpslldE11XMMRegister9KRegisterS0_ibi(ptr noundef nonnull align 8 dereferenceable(40) %56, i32 %75, i32 %77, i32 %79, i32 noundef %70, i1 noundef zeroext %72, i32 noundef %73)
  br label %185

80:                                               ; preds = %9
  call void @llvm.memcpy.p0.p0.i64(ptr align 4 %25, ptr align 4 %11, i64 4, i1 false)
  call void @llvm.memcpy.p0.p0.i64(ptr align 4 %26, ptr align 4 %10, i64 4, i1 false)
  call void @llvm.memcpy.p0.p0.i64(ptr align 4 %27, ptr align 4 %12, i64 4, i1 false)
  %81 = load i32, ptr %16, align 4
  %82 = load i8, ptr %17, align 1
  %83 = trunc i8 %82 to i1
  %84 = load i32, ptr %18, align 4
  %85 = getelementptr inbounds %class.XMMRegister, ptr %25, i32 0, i32 0
  %86 = load i32, ptr %85, align 4
  %87 = getelementptr inbounds %class.KRegister, ptr %26, i32 0, i32 0
  %88 = load i32, ptr %87, align 4
  %89 = getelementptr inbounds %class.XMMRegister, ptr %27, i32 0, i32 0
  %90 = load i32, ptr %89, align 4
  call void @_ZN9Assembler7evpsllqE11XMMRegister9KRegisterS0_ibi(ptr noundef nonnull align 8 dereferenceable(40) %56, i32 %86, i32 %88, i32 %90, i32 noundef %81, i1 noundef zeroext %83, i32 noundef %84)
  br label %185

91:                                               ; preds = %9
  call void @llvm.memcpy.p0.p0.i64(ptr align 4 %28, ptr align 4 %11, i64 4, i1 false)
  call void @llvm.memcpy.p0.p0.i64(ptr align 4 %29, ptr align 4 %10, i64 4, i1 false)
  call void @llvm.memcpy.p0.p0.i64(ptr align 4 %30, ptr align 4 %12, i64 4, i1 false)
  %92 = load i32, ptr %16, align 4
  %93 = load i8, ptr %17, align 1
  %94 = trunc i8 %93 to i1
  %95 = load i32, ptr %18, align 4
  %96 = getelementptr inbounds %class.XMMRegister, ptr %28, i32 0, i32 0
  %97 = load i32, ptr %96, align 4
  %98 = getelementptr inbounds %class.KRegister, ptr %29, i32 0, i32 0
  %99 = load i32, ptr %98, align 4
  %100 = getelementptr inbounds %class.XMMRegister, ptr %30, i32 0, i32 0
  %101 = load i32, ptr %100, align 4
  call void @_ZN9Assembler7evpsrawE11XMMRegister9KRegisterS0_ibi(ptr noundef nonnull align 8 dereferenceable(40) %56, i32 %97, i32 %99, i32 %101, i32 noundef %92, i1 noundef zeroext %94, i32 noundef %95)
  br label %185

102:                                              ; preds = %9
  call void @llvm.memcpy.p0.p0.i64(ptr align 4 %31, ptr align 4 %11, i64 4, i1 false)
  call void @llvm.memcpy.p0.p0.i64(ptr align 4 %32, ptr align 4 %10, i64 4, i1 false)
  call void @llvm.memcpy.p0.p0.i64(ptr align 4 %33, ptr align 4 %12, i64 4, i1 false)
  %103 = load i32, ptr %16, align 4
  %104 = load i8, ptr %17, align 1
  %105 = trunc i8 %104 to i1
  %106 = load i32, ptr %18, align 4
  %107 = getelementptr inbounds %class.XMMRegister, ptr %31, i32 0, i32 0
  %108 = load i32, ptr %107, align 4
  %109 = getelementptr inbounds %class.KRegister, ptr %32, i32 0, i32 0
  %110 = load i32, ptr %109, align 4
  %111 = getelementptr inbounds %class.XMMRegister, ptr %33, i32 0, i32 0
  %112 = load i32, ptr %111, align 4
  call void @_ZN9Assembler7evpsradE11XMMRegister9KRegisterS0_ibi(ptr noundef nonnull align 8 dereferenceable(40) %56, i32 %108, i32 %110, i32 %112, i32 noundef %103, i1 noundef zeroext %105, i32 noundef %106)
  br label %185

113:                                              ; preds = %9
  call void @llvm.memcpy.p0.p0.i64(ptr align 4 %34, ptr align 4 %11, i64 4, i1 false)
  call void @llvm.memcpy.p0.p0.i64(ptr align 4 %35, ptr align 4 %10, i64 4, i1 false)
  call void @llvm.memcpy.p0.p0.i64(ptr align 4 %36, ptr align 4 %12, i64 4, i1 false)
  %114 = load i32, ptr %16, align 4
  %115 = load i8, ptr %17, align 1
  %116 = trunc i8 %115 to i1
  %117 = load i32, ptr %18, align 4
  %118 = getelementptr inbounds %class.XMMRegister, ptr %34, i32 0, i32 0
  %119 = load i32, ptr %118, align 4
  %120 = getelementptr inbounds %class.KRegister, ptr %35, i32 0, i32 0
  %121 = load i32, ptr %120, align 4
  %122 = getelementptr inbounds %class.XMMRegister, ptr %36, i32 0, i32 0
  %123 = load i32, ptr %122, align 4
  call void @_ZN9Assembler7evpsraqE11XMMRegister9KRegisterS0_ibi(ptr noundef nonnull align 8 dereferenceable(40) %56, i32 %119, i32 %121, i32 %123, i32 noundef %114, i1 noundef zeroext %116, i32 noundef %117)
  br label %185

124:                                              ; preds = %9
  call void @llvm.memcpy.p0.p0.i64(ptr align 4 %37, ptr align 4 %11, i64 4, i1 false)
  call void @llvm.memcpy.p0.p0.i64(ptr align 4 %38, ptr align 4 %10, i64 4, i1 false)
  call void @llvm.memcpy.p0.p0.i64(ptr align 4 %39, ptr align 4 %12, i64 4, i1 false)
  %125 = load i32, ptr %16, align 4
  %126 = load i8, ptr %17, align 1
  %127 = trunc i8 %126 to i1
  %128 = load i32, ptr %18, align 4
  %129 = getelementptr inbounds %class.XMMRegister, ptr %37, i32 0, i32 0
  %130 = load i32, ptr %129, align 4
  %131 = getelementptr inbounds %class.KRegister, ptr %38, i32 0, i32 0
  %132 = load i32, ptr %131, align 4
  %133 = getelementptr inbounds %class.XMMRegister, ptr %39, i32 0, i32 0
  %134 = load i32, ptr %133, align 4
  call void @_ZN9Assembler7evpsrlwE11XMMRegister9KRegisterS0_ibi(ptr noundef nonnull align 8 dereferenceable(40) %56, i32 %130, i32 %132, i32 %134, i32 noundef %125, i1 noundef zeroext %127, i32 noundef %128)
  br label %185

135:                                              ; preds = %9
  call void @llvm.memcpy.p0.p0.i64(ptr align 4 %40, ptr align 4 %11, i64 4, i1 false)
  call void @llvm.memcpy.p0.p0.i64(ptr align 4 %41, ptr align 4 %10, i64 4, i1 false)
  call void @llvm.memcpy.p0.p0.i64(ptr align 4 %42, ptr align 4 %12, i64 4, i1 false)
  %136 = load i32, ptr %16, align 4
  %137 = load i8, ptr %17, align 1
  %138 = trunc i8 %137 to i1
  %139 = load i32, ptr %18, align 4
  %140 = getelementptr inbounds %class.XMMRegister, ptr %40, i32 0, i32 0
  %141 = load i32, ptr %140, align 4
  %142 = getelementptr inbounds %class.KRegister, ptr %41, i32 0, i32 0
  %143 = load i32, ptr %142, align 4
  %144 = getelementptr inbounds %class.XMMRegister, ptr %42, i32 0, i32 0
  %145 = load i32, ptr %144, align 4
  call void @_ZN9Assembler7evpsrldE11XMMRegister9KRegisterS0_ibi(ptr noundef nonnull align 8 dereferenceable(40) %56, i32 %141, i32 %143, i32 %145, i32 noundef %136, i1 noundef zeroext %138, i32 noundef %139)
  br label %185

146:                                              ; preds = %9
  call void @llvm.memcpy.p0.p0.i64(ptr align 4 %43, ptr align 4 %11, i64 4, i1 false)
  call void @llvm.memcpy.p0.p0.i64(ptr align 4 %44, ptr align 4 %10, i64 4, i1 false)
  call void @llvm.memcpy.p0.p0.i64(ptr align 4 %45, ptr align 4 %12, i64 4, i1 false)
  %147 = load i32, ptr %16, align 4
  %148 = load i8, ptr %17, align 1
  %149 = trunc i8 %148 to i1
  %150 = load i32, ptr %18, align 4
  %151 = getelementptr inbounds %class.XMMRegister, ptr %43, i32 0, i32 0
  %152 = load i32, ptr %151, align 4
  %153 = getelementptr inbounds %class.KRegister, ptr %44, i32 0, i32 0
  %154 = load i32, ptr %153, align 4
  %155 = getelementptr inbounds %class.XMMRegister, ptr %45, i32 0, i32 0
  %156 = load i32, ptr %155, align 4
  call void @_ZN9Assembler7evpsrlqE11XMMRegister9KRegisterS0_ibi(ptr noundef nonnull align 8 dereferenceable(40) %56, i32 %152, i32 %154, i32 %156, i32 noundef %147, i1 noundef zeroext %149, i32 noundef %150)
  br label %185

157:                                              ; preds = %9
  %158 = load i8, ptr %15, align 1
  call void @llvm.memcpy.p0.p0.i64(ptr align 4 %46, ptr align 4 %11, i64 4, i1 false)
  call void @llvm.memcpy.p0.p0.i64(ptr align 4 %47, ptr align 4 %10, i64 4, i1 false)
  call void @llvm.memcpy.p0.p0.i64(ptr align 4 %48, ptr align 4 %12, i64 4, i1 false)
  %159 = load i32, ptr %16, align 4
  %160 = load i8, ptr %17, align 1
  %161 = trunc i8 %160 to i1
  %162 = load i32, ptr %18, align 4
  %163 = getelementptr inbounds %class.XMMRegister, ptr %46, i32 0, i32 0
  %164 = load i32, ptr %163, align 4
  %165 = getelementptr inbounds %class.KRegister, ptr %47, i32 0, i32 0
  %166 = load i32, ptr %165, align 4
  %167 = getelementptr inbounds %class.XMMRegister, ptr %48, i32 0, i32 0
  %168 = load i32, ptr %167, align 4
  call void @_ZN14MacroAssembler6evrordE9BasicType11XMMRegister9KRegisterS1_ibi(ptr noundef nonnull align 8 dereferenceable(40) %56, i8 noundef zeroext %158, i32 %164, i32 %166, i32 %168, i32 noundef %159, i1 noundef zeroext %161, i32 noundef %162)
  br label %185

169:                                              ; preds = %9
  %170 = load i8, ptr %15, align 1
  call void @llvm.memcpy.p0.p0.i64(ptr align 4 %49, ptr align 4 %11, i64 4, i1 false)
  call void @llvm.memcpy.p0.p0.i64(ptr align 4 %50, ptr align 4 %10, i64 4, i1 false)
  call void @llvm.memcpy.p0.p0.i64(ptr align 4 %51, ptr align 4 %12, i64 4, i1 false)
  %171 = load i32, ptr %16, align 4
  %172 = load i8, ptr %17, align 1
  %173 = trunc i8 %172 to i1
  %174 = load i32, ptr %18, align 4
  %175 = getelementptr inbounds %class.XMMRegister, ptr %49, i32 0, i32 0
  %176 = load i32, ptr %175, align 4
  %177 = getelementptr inbounds %class.KRegister, ptr %50, i32 0, i32 0
  %178 = load i32, ptr %177, align 4
  %179 = getelementptr inbounds %class.XMMRegister, ptr %51, i32 0, i32 0
  %180 = load i32, ptr %179, align 4
  call void @_ZN14MacroAssembler6evroldE9BasicType11XMMRegister9KRegisterS1_ibi(ptr noundef nonnull align 8 dereferenceable(40) %56, i8 noundef zeroext %170, i32 %176, i32 %178, i32 %180, i32 noundef %171, i1 noundef zeroext %173, i32 noundef %174)
  br label %185

181:                                              ; preds = %9
  br label %182

182:                                              ; preds = %181
  %183 = load ptr, ptr @g_assert_poison, align 8
  store i8 88, ptr %183, align 1
  call void (i32, ptr, i32, ptr, ...) @_Z12report_fatal11VMErrorTypePKciS1_z(i32 noundef -536870912, ptr noundef @.str, i32 noundef 4482, ptr noundef @.str.5) #8
  unreachable

184:                                              ; No predecessors!
  br label %185

185:                                              ; preds = %184, %169, %157, %146, %135, %124, %113, %102, %91, %80, %69, %58
  ret void
}