; Function Attrs: mustprogress nounwind uwtable
define hidden void @_ZN17C2_MacroAssembler11evmasked_opEi9BasicType9KRegister11XMMRegisterS2_ibi(ptr noundef nonnull align 8 dereferenceable(40) %0, i32 noundef %1, i8 noundef zeroext %2, i32 %3, i32 %4, i32 %5, i32 noundef %6, i1 noundef zeroext %7, i32 noundef %8) local_unnamed_addr #0 align 2 {
  switch i32 %1, label %21 [
    i32 402, label %10
    i32 403, label %11
    i32 404, label %12
    i32 406, label %13
    i32 407, label %14
    i32 408, label %15
    i32 410, label %16
    i32 411, label %17
    i32 412, label %18
    i32 299, label %19
    i32 297, label %20
  ]

10:                                               ; preds = %9
  tail call void @_ZN9Assembler7evpsllwE11XMMRegister9KRegisterS0_ibi(ptr noundef nonnull align 8 dereferenceable(40) %0, i32 %4, i32 %3, i32 %5, i32 noundef %6, i1 noundef zeroext %7, i32 noundef %8) #11
  br label %23

11:                                               ; preds = %9
  tail call void @_ZN9Assembler7evpslldE11XMMRegister9KRegisterS0_ibi(ptr noundef nonnull align 8 dereferenceable(40) %0, i32 %4, i32 %3, i32 %5, i32 noundef %6, i1 noundef zeroext %7, i32 noundef %8) #11
  br label %23

12:                                               ; preds = %9
  tail call void @_ZN9Assembler7evpsllqE11XMMRegister9KRegisterS0_ibi(ptr noundef nonnull align 8 dereferenceable(40) %0, i32 %4, i32 %3, i32 %5, i32 noundef %6, i1 noundef zeroext %7, i32 noundef %8) #11
  br label %23

13:                                               ; preds = %9
  tail call void @_ZN9Assembler7evpsrawE11XMMRegister9KRegisterS0_ibi(ptr noundef nonnull align 8 dereferenceable(40) %0, i32 %4, i32 %3, i32 %5, i32 noundef %6, i1 noundef zeroext %7, i32 noundef %8) #11
  br label %23

14:                                               ; preds = %9
  tail call void @_ZN9Assembler7evpsradE11XMMRegister9KRegisterS0_ibi(ptr noundef nonnull align 8 dereferenceable(40) %0, i32 %4, i32 %3, i32 %5, i32 noundef %6, i1 noundef zeroext %7, i32 noundef %8) #11
  br label %23

15:                                               ; preds = %9
  tail call void @_ZN9Assembler7evpsraqE11XMMRegister9KRegisterS0_ibi(ptr noundef nonnull align 8 dereferenceable(40) %0, i32 %4, i32 %3, i32 %5, i32 noundef %6, i1 noundef zeroext %7, i32 noundef %8) #11
  br label %23

16:                                               ; preds = %9
  tail call void @_ZN9Assembler7evpsrlwE11XMMRegister9KRegisterS0_ibi(ptr noundef nonnull align 8 dereferenceable(40) %0, i32 %4, i32 %3, i32 %5, i32 noundef %6, i1 noundef zeroext %7, i32 noundef %8) #11
  br label %23

17:                                               ; preds = %9
  tail call void @_ZN9Assembler7evpsrldE11XMMRegister9KRegisterS0_ibi(ptr noundef nonnull align 8 dereferenceable(40) %0, i32 %4, i32 %3, i32 %5, i32 noundef %6, i1 noundef zeroext %7, i32 noundef %8) #11
  br label %23

18:                                               ; preds = %9
  tail call void @_ZN9Assembler7evpsrlqE11XMMRegister9KRegisterS0_ibi(ptr noundef nonnull align 8 dereferenceable(40) %0, i32 %4, i32 %3, i32 %5, i32 noundef %6, i1 noundef zeroext %7, i32 noundef %8) #11
  br label %23

19:                                               ; preds = %9
  tail call void @_ZN14MacroAssembler6evrordE9BasicType11XMMRegister9KRegisterS1_ibi(ptr noundef nonnull align 8 dereferenceable(40) %0, i8 noundef zeroext %2, i32 %4, i32 %3, i32 %5, i32 noundef %6, i1 noundef zeroext %7, i32 noundef %8) #11
  br label %23

20:                                               ; preds = %9
  tail call void @_ZN14MacroAssembler6evroldE9BasicType11XMMRegister9KRegisterS1_ibi(ptr noundef nonnull align 8 dereferenceable(40) %0, i8 noundef zeroext %2, i32 %4, i32 %3, i32 %5, i32 noundef %6, i1 noundef zeroext %7, i32 noundef %8) #11
  br label %23

21:                                               ; preds = %9
  %22 = load ptr, ptr @g_assert_poison, align 8
  store i8 88, ptr %22, align 1
  tail call void (i32, ptr, i32, ptr, ...) @_Z12report_fatal11VMErrorTypePKciS1_z(i32 noundef -536870912, ptr noundef nonnull @.str, i32 noundef 4482, ptr noundef nonnull @.str.5) #12
  unreachable

23:                                               ; preds = %20, %19, %18, %17, %16, %15, %14, %13, %12, %11, %10
  ret void
}